target datalayout = "e-m:e-p270:32:32-p271:32:32-p272:64:64-i64:64-i128:128-f80:128-n8:16:32:64-S128"
target triple = "x86_64-pc-linux-gnu"

%struct.gid_cb_st = type { ptr, i64, i64, ptr, i64, i64, ptr, i64, i64, ptr, i64, i32 }

@.str.2 = private unnamed_addr constant [24 x i8] c"../openssl/ssl/t1_lib.c\00", align 1
@__func__.tuple_cb = private unnamed_addr constant [9 x i8] c"tuple_cb\00", align 1

; Function Attrs: nounwind uwtable
define internal i32 @tuple_cb(ptr noundef %0, i32 noundef %1, ptr noundef %2) #1 {
  %4 = alloca i32, align 4
  %5 = alloca ptr, align 8
  %6 = alloca i32, align 4
  %7 = alloca ptr, align 8
  %8 = alloca ptr, align 8
  %9 = alloca i32, align 4
  %10 = alloca ptr, align 8
  %11 = alloca i32, align 4
  %12 = alloca ptr, align 8
  store ptr %0, ptr %5, align 8, !tbaa !172
  store i32 %1, ptr %6, align 4, !tbaa !128
  store ptr %2, ptr %7, align 8, !tbaa !112
  call void @llvm.lifetime.start.p0(i64 8, ptr %8) #8
  %13 = load ptr, ptr %7, align 8, !tbaa !112
  store ptr %13, ptr %8, align 8, !tbaa !112
  call void @llvm.lifetime.start.p0(i64 4, ptr %9) #8
  store i32 1, ptr %9, align 4, !tbaa !128
  call void @llvm.lifetime.start.p0(i64 8, ptr %10) #8
  %14 = load ptr, ptr %8, align 8, !tbaa !112
  %15 = icmp eq ptr %14, null
  br i1 %15, label %22, label %16

16:                                               ; preds = %3
  %17 = load ptr, ptr %5, align 8, !tbaa !172
  %18 = icmp eq ptr %17, null
  br i1 %18, label %22, label %19

19:                                               ; preds = %16
  %20 = load i32, ptr %6, align 4, !tbaa !128
  %21 = icmp sle i32 %20, 0
  br i1 %21, label %22, label %23

22:                                               ; preds = %19, %16, %3
  call void @ERR_new()
  call void @ERR_set_debug(ptr noundef @.str.2, i32 noundef 1576, ptr noundef @__func__.tuple_cb)
  call void (i32, i32, ptr, ...) @ERR_set_error(i32 noundef 14, i32 noundef 104, ptr noundef null)
  store i32 0, ptr %4, align 4
  store i32 1, ptr %11, align 4
  br label %108

23:                                               ; preds = %19
  %24 = load ptr, ptr %8, align 8, !tbaa !112
  %25 = getelementptr inbounds nuw %struct.gid_cb_st, ptr %24, i32 0, i32 5
  %26 = load i64, ptr %25, align 8, !tbaa !193
  %27 = load ptr, ptr %8, align 8, !tbaa !112
  %28 = getelementptr inbounds nuw %struct.gid_cb_st, ptr %27, i32 0, i32 4
  %29 = load i64, ptr %28, align 8, !tbaa !187
  %30 = icmp eq i64 %26, %29
  br i1 %30, label %31, label %55

31:                                               ; preds = %23
  call void @llvm.lifetime.start.p0(i64 8, ptr %12) #8
  %32 = load ptr, ptr %8, align 8, !tbaa !112
  %33 = getelementptr inbounds nuw %struct.gid_cb_st, ptr %32, i32 0, i32 6
  %34 = load ptr, ptr %33, align 8, !tbaa !191
  %35 = load ptr, ptr %8, align 8, !tbaa !112
  %36 = getelementptr inbounds nuw %struct.gid_cb_st, ptr %35, i32 0, i32 4
  %37 = load i64, ptr %36, align 8, !tbaa !187
  %38 = add i64 %37, 32
  %39 = mul i64 %38, 8
  %40 = call ptr @CRYPTO_realloc(ptr noundef %34, i64 noundef %39, ptr noundef @.str.2, i32 noundef 1584)
  store ptr %40, ptr %12, align 8, !tbaa !136
  %41 = load ptr, ptr %12, align 8, !tbaa !136
  %42 = icmp eq ptr %41, null
  br i1 %42, label %43, label %44

43:                                               ; preds = %31
  store i32 0, ptr %4, align 4
  store i32 1, ptr %11, align 4
  br label %52

44:                                               ; preds = %31
  %45 = load ptr, ptr %8, align 8, !tbaa !112
  %46 = getelementptr inbounds nuw %struct.gid_cb_st, ptr %45, i32 0, i32 4
  %47 = load i64, ptr %46, align 8, !tbaa !187
  %48 = add i64 %47, 32
  store i64 %48, ptr %46, align 8, !tbaa !187
  %49 = load ptr, ptr %12, align 8, !tbaa !136
  %50 = load ptr, ptr %8, align 8, !tbaa !112
  %51 = getelementptr inbounds nuw %struct.gid_cb_st, ptr %50, i32 0, i32 6
  store ptr %49, ptr %51, align 8, !tbaa !191
  store i32 0, ptr %11, align 4
  br label %52

52:                                               ; preds = %44, %43
  call void @llvm.lifetime.end.p0(i64 8, ptr %12) #8
  %53 = load i32, ptr %11, align 4
  switch i32 %53, label %108 [
    i32 0, label %54
  ]

54:                                               ; preds = %52
  br label %55

55:                                               ; preds = %54, %23
  %56 = load i32, ptr %6, align 4, !tbaa !128
  %57 = add nsw i32 %56, 1
  %58 = sext i32 %57 to i64
  %59 = mul i64 %58, 1
  %60 = call noalias ptr @CRYPTO_malloc(i64 noundef %59, ptr noundef @.str.2, i32 noundef 1593)
  store ptr %60, ptr %10, align 8, !tbaa !172
  %61 = load ptr, ptr %10, align 8, !tbaa !172
  %62 = icmp eq ptr %61, null
  br i1 %62, label %63, label %64

63:                                               ; preds = %55
  store i32 0, ptr %4, align 4
  store i32 1, ptr %11, align 4
  br label %108

64:                                               ; preds = %55
  %65 = load ptr, ptr %10, align 8, !tbaa !172
  %66 = load ptr, ptr %5, align 8, !tbaa !172
  %67 = load i32, ptr %6, align 4, !tbaa !128
  %68 = sext i32 %67 to i64
  call void @llvm.memcpy.p0.p0.i64(ptr align 1 %65, ptr align 1 %66, i64 %68, i1 false)
  %69 = load ptr, ptr %10, align 8, !tbaa !172
  %70 = load i32, ptr %6, align 4, !tbaa !128
  %71 = sext i32 %70 to i64
  %72 = getelementptr inbounds i8, ptr %69, i64 %71
  store i8 0, ptr %72, align 1, !tbaa !161
  %73 = load ptr, ptr %10, align 8, !tbaa !172
  %74 = load ptr, ptr %7, align 8, !tbaa !112
  %75 = call i32 @CONF_parse_list(ptr noundef %73, i32 noundef 58, i32 noundef 1, ptr noundef @gid_cb, ptr noundef %74)
  store i32 %75, ptr %9, align 4, !tbaa !128
  %76 = load ptr, ptr %10, align 8, !tbaa !172
  call void @CRYPTO_free(ptr noundef %76, ptr noundef @.str.2, i32 noundef 1603)
  %77 = load ptr, ptr %8, align 8, !tbaa !112
  %78 = getelementptr inbounds nuw %struct.gid_cb_st, ptr %77, i32 0, i32 6
  %79 = load ptr, ptr %78, align 8, !tbaa !191
  %80 = load ptr, ptr %8, align 8, !tbaa !112
  %81 = getelementptr inbounds nuw %struct.gid_cb_st, ptr %80, i32 0, i32 5
  %82 = load i64, ptr %81, align 8, !tbaa !193
  %83 = getelementptr inbounds nuw i64, ptr %79, i64 %82
  %84 = load i64, ptr %83, align 8, !tbaa !3
  %85 = icmp ugt i64 %84, 0
  br i1 %85, label %86, label %106

86:                                               ; preds = %64
  %87 = load ptr, ptr %8, align 8, !tbaa !112
  %88 = getelementptr inbounds nuw %struct.gid_cb_st, ptr %87, i32 0, i32 10
  %89 = load i64, ptr %88, align 8, !tbaa !183
  %90 = icmp ne i64 %89, 0
  br i1 %90, label %91, label %105

91:                                               ; preds = %86
  %92 = load ptr, ptr %8, align 8, !tbaa !112
  %93 = getelementptr inbounds nuw %struct.gid_cb_st, ptr %92, i32 0, i32 5
  %94 = load i64, ptr %93, align 8, !tbaa !193
  %95 = add i64 %94, 1
  store i64 %95, ptr %93, align 8, !tbaa !193
  %96 = load ptr, ptr %8, align 8, !tbaa !112
  %97 = getelementptr inbounds nuw %struct.gid_cb_st, ptr %96, i32 0, i32 6
  %98 = load ptr, ptr %97, align 8, !tbaa !191
  %99 = load ptr, ptr %8, align 8, !tbaa !112
  %100 = getelementptr inbounds nuw %struct.gid_cb_st, ptr %99, i32 0, i32 5
  %101 = load i64, ptr %100, align 8, !tbaa !193
  %102 = getelementptr inbounds nuw i64, ptr %98, i64 %101
  store i64 0, ptr %102, align 8, !tbaa !3
  %103 = load ptr, ptr %8, align 8, !tbaa !112
  %104 = getelementptr inbounds nuw %struct.gid_cb_st, ptr %103, i32 0, i32 10
  store i64 1, ptr %104, align 8, !tbaa !183
  br label %105

105:                                              ; preds = %91, %86
  br label %106

106:                                              ; preds = %105, %64
  %107 = load i32, ptr %9, align 4, !tbaa !128
  store i32 %107, ptr %4, align 4
  store i32 1, ptr %11, align 4
  br label %108

108:                                              ; preds = %106, %63, %52, %22
  call void @llvm.lifetime.end.p0(i64 8, ptr %10) #8
  call void @llvm.lifetime.end.p0(i64 4, ptr %9) #8
  call void @llvm.lifetime.end.p0(i64 8, ptr %8) #8
  %109 = load i32, ptr %4, align 4
  ret i32 %109
}