; Function Attrs: nounwind uwtable
define internal i32 @tuple_cb(ptr noundef readonly captures(address_is_null) %0, i32 noundef %1, ptr noundef %2) #2 {
  %4 = icmp eq ptr %2, null
  %5 = icmp eq ptr %0, null
  %or.cond = or i1 %5, %4
  %6 = icmp slt i32 %1, 1
  %or.cond3 = or i1 %6, %or.cond
  br i1 %or.cond3, label %7, label %8

7:                                                ; preds = %3
  tail call void @ERR_new() #14
  tail call void @ERR_set_debug(ptr noundef nonnull @.str.2, i32 noundef 1576, ptr noundef nonnull @__func__.tuple_cb) #14
  tail call void (i32, i32, ptr, ...) @ERR_set_error(i32 noundef 14, i32 noundef 104, ptr noundef null) #14
  br label %.critedge

8:                                                ; preds = %3
  %9 = getelementptr inbounds nuw i8, ptr %2, i64 40
  %10 = load i64, ptr %9, align 8, !tbaa !170
  %11 = getelementptr inbounds nuw i8, ptr %2, i64 32
  %12 = load i64, ptr %11, align 8, !tbaa !164
  %13 = icmp eq i64 %10, %12
  br i1 %13, label %14, label %23

14:                                               ; preds = %8
  %15 = getelementptr inbounds nuw i8, ptr %2, i64 48
  %16 = load ptr, ptr %15, align 8, !tbaa !168
  %17 = shl i64 %10, 3
  %18 = add i64 %17, 256
  %19 = tail call ptr @CRYPTO_realloc(ptr noundef %16, i64 noundef %18, ptr noundef nonnull @.str.2, i32 noundef 1584) #14
  %.not = icmp eq ptr %19, null
  br i1 %.not, label %.critedge, label %20

20:                                               ; preds = %14
  %21 = load i64, ptr %11, align 8, !tbaa !164
  %22 = add i64 %21, 32
  store i64 %22, ptr %11, align 8, !tbaa !164
  store ptr %19, ptr %15, align 8, !tbaa !168
  br label %23

23:                                               ; preds = %20, %8
  %24 = add nuw nsw i32 %1, 1
  %25 = zext nneg i32 %24 to i64
  %26 = tail call noalias ptr @CRYPTO_malloc(i64 noundef %25, ptr noundef nonnull @.str.2, i32 noundef 1593) #14
  %27 = icmp eq ptr %26, null
  br i1 %27, label %.critedge, label %28

28:                                               ; preds = %23
  %29 = zext nneg i32 %1 to i64
  tail call void @llvm.memcpy.p0.p0.i64(ptr nonnull align 1 %26, ptr nonnull align 1 %0, i64 %29, i1 false)
  %30 = getelementptr inbounds nuw i8, ptr %26, i64 %29
  store i8 0, ptr %30, align 1, !tbaa !141
  %31 = tail call i32 @CONF_parse_list(ptr noundef nonnull %26, i32 noundef 58, i32 noundef 1, ptr noundef nonnull @gid_cb, ptr noundef nonnull %2) #14
  tail call void @CRYPTO_free(ptr noundef nonnull %26, ptr noundef nonnull @.str.2, i32 noundef 1603) #14
  %32 = getelementptr inbounds nuw i8, ptr %2, i64 48
  %33 = load ptr, ptr %32, align 8, !tbaa !168
  %34 = load i64, ptr %9, align 8, !tbaa !170
  %35 = getelementptr inbounds nuw i64, ptr %33, i64 %34
  %36 = load i64, ptr %35, align 8, !tbaa !105
  %.not41 = icmp eq i64 %36, 0
  br i1 %.not41, label %.critedge, label %37

37:                                               ; preds = %28
  %38 = getelementptr inbounds nuw i8, ptr %2, i64 80
  %39 = load i64, ptr %38, align 8, !tbaa !161
  %.not42 = icmp eq i64 %39, 0
  br i1 %.not42, label %.critedge, label %40

40:                                               ; preds = %37
  %41 = add i64 %34, 1
  store i64 %41, ptr %9, align 8, !tbaa !170
  %42 = getelementptr inbounds nuw i64, ptr %33, i64 %41
  store i64 0, ptr %42, align 8, !tbaa !105
  store i64 1, ptr %38, align 8, !tbaa !161
  br label %.critedge

.critedge:                                        ; preds = %14, %28, %40, %37, %23, %7
  %.0 = phi i32 [ 0, %7 ], [ 0, %23 ], [ %31, %37 ], [ %31, %40 ], [ %31, %28 ], [ 0, %14 ]
  ret i32 %.0
}